; Function Attrs: mustprogress uwtable
define void @_ZN4cvc58internal12SolverEngine9interruptEv(ptr noundef nonnull readonly align 8 captures(none) dereferenceable(296) %0) local_unnamed_addr #4 align 2 {
  %2 = getelementptr inbounds nuw i8, ptr %0, i64 16
  %3 = load ptr, ptr %2, align 8, !tbaa !129
  %4 = tail call noundef zeroext i1 @_ZNK4cvc58internal3smt17SolverEngineState13isFullyInitedEv(ptr noundef nonnull align 8 dereferenceable(108) %3)
  br i1 %4, label %5, label %8

5:                                                ; preds = %1
  %6 = getelementptr inbounds nuw i8, ptr %0, i64 40
  %7 = load ptr, ptr %6, align 8, !tbaa !143
  tail call void @_ZN4cvc58internal3smt9SmtSolver9interruptEv(ptr noundef nonnull align 8 dereferenceable(1288) %7)
  br label %8

8:                                                ; preds = %1, %5
  ret void
}